target datalayout = "e-m:e-p270:32:32-p271:32:32-p272:64:64-i64:64-i128:128-f80:128-n8:16:32:64-S128"
target triple = "x86_64-pc-linux-gnu"

%struct.strbuf = type { i64, i64, ptr }

@comment_line_str = external global ptr, align 8
@.str.1 = private unnamed_addr constant [31 x i8] c"Rebase %s onto %s (%d command)\00", align 1
@.str.2 = private unnamed_addr constant [32 x i8] c"Rebase %s onto %s (%d commands)\00", align 1
@.str.3 = private unnamed_addr constant [68 x i8] c"\0ADo not remove any line. Use 'drop' explicitly to remove a commit.\0A\00", align 1
@.str.4 = private unnamed_addr constant [54 x i8] c"\0AIf you remove a line here THAT COMMIT WILL BE LOST.\0A\00", align 1
@.str.5 = private unnamed_addr constant [132 x i8] c"\0AYou are editing the todo file of an ongoing interactive rebase.\0ATo continue rebase after editing, run:\0A    git rebase --continue\0A\0A\00", align 1
@.str.6 = private unnamed_addr constant [66 x i8] c"\0AHowever, if you remove everything, the rebase will be aborted.\0A\0A\00", align 1
@.str.10 = private unnamed_addr constant [1 x i8] zeroinitializer, align 1
@git_gettext_enabled = external global i32, align 4

; Function Attrs: inlinehint nounwind uwtable
define internal i64 @strbuf_avail(ptr noundef %0) #2 {
  %2 = alloca ptr, align 8
  store ptr %0, ptr %2, align 8, !tbaa !11
  %3 = load ptr, ptr %2, align 8, !tbaa !11
  %4 = getelementptr inbounds nuw %struct.strbuf, ptr %3, i32 0, i32 0
  %5 = load i64, ptr %4, align 8, !tbaa !49
  %6 = icmp ne i64 %5, 0
  br i1 %6, label %7, label %16

7:                                                ; preds = %1
  %8 = load ptr, ptr %2, align 8, !tbaa !11
  %9 = getelementptr inbounds nuw %struct.strbuf, ptr %8, i32 0, i32 0
  %10 = load i64, ptr %9, align 8, !tbaa !49
  %11 = load ptr, ptr %2, align 8, !tbaa !11
  %12 = getelementptr inbounds nuw %struct.strbuf, ptr %11, i32 0, i32 1
  %13 = load i64, ptr %12, align 8, !tbaa !17
  %14 = sub i64 %10, %13
  %15 = sub i64 %14, 1
  br label %17

16:                                               ; preds = %1
  br label %17

17:                                               ; preds = %16, %7
  %18 = phi i64 [ %15, %7 ], [ 0, %16 ]
  ret i64 %18
}

; Function Attrs: inlinehint nounwind uwtable
define internal ptr @Q_(ptr noundef %0, ptr noundef %1, i64 noundef %2) #2 {
  %4 = alloca ptr, align 8
  %5 = alloca ptr, align 8
  %6 = alloca ptr, align 8
  %7 = alloca i64, align 8
  store ptr %0, ptr %5, align 8, !tbaa !8
  store ptr %1, ptr %6, align 8, !tbaa !8
  store i64 %2, ptr %7, align 8, !tbaa !18
  %8 = load i32, ptr @git_gettext_enabled, align 4, !tbaa !4
  %9 = icmp ne i32 %8, 0
  br i1 %9, label %19, label %10

10:                                               ; preds = %3
  %11 = load i64, ptr %7, align 8, !tbaa !18
  %12 = icmp eq i64 %11, 1
  br i1 %12, label %13, label %15

13:                                               ; preds = %10
  %14 = load ptr, ptr %5, align 8, !tbaa !8
  br label %17

15:                                               ; preds = %10
  %16 = load ptr, ptr %6, align 8, !tbaa !8
  br label %17

17:                                               ; preds = %15, %13
  %18 = phi ptr [ %14, %13 ], [ %16, %15 ]
  store ptr %18, ptr %4, align 8
  br label %24

19:                                               ; preds = %3
  %20 = load ptr, ptr %5, align 8, !tbaa !8
  %21 = load ptr, ptr %6, align 8, !tbaa !8
  %22 = load i64, ptr %7, align 8, !tbaa !18
  %23 = call ptr @dcngettext(ptr noundef null, ptr noundef %20, ptr noundef %21, i64 noundef %22, i32 noundef 5) #8
  store ptr %23, ptr %4, align 8
  br label %24

24:                                               ; preds = %19, %17
  %25 = load ptr, ptr %4, align 8
  ret ptr %25
}

; Function Attrs: inlinehint nounwind uwtable
define internal void @strbuf_addch(ptr noundef %0, i32 noundef %1) #2 {
  %3 = alloca ptr, align 8
  %4 = alloca i32, align 4
  store ptr %0, ptr %3, align 8, !tbaa !11
  store i32 %1, ptr %4, align 4, !tbaa !4
  %5 = load ptr, ptr %3, align 8, !tbaa !11
  %6 = call i64 @strbuf_avail(ptr noundef %5)
  %7 = icmp ne i64 %6, 0
  br i1 %7, label %10, label %8

8:                                                ; preds = %2
  %9 = load ptr, ptr %3, align 8, !tbaa !11
  call void @strbuf_grow(ptr noundef %9, i64 noundef 1)
  br label %10

10:                                               ; preds = %8, %2
  %11 = load i32, ptr %4, align 4, !tbaa !4
  %12 = trunc i32 %11 to i8
  %13 = load ptr, ptr %3, align 8, !tbaa !11
  %14 = getelementptr inbounds nuw %struct.strbuf, ptr %13, i32 0, i32 2
  %15 = load ptr, ptr %14, align 8, !tbaa !14
  %16 = load ptr, ptr %3, align 8, !tbaa !11
  %17 = getelementptr inbounds nuw %struct.strbuf, ptr %16, i32 0, i32 1
  %18 = load i64, ptr %17, align 8, !tbaa !17
  %19 = add i64 %18, 1
  store i64 %19, ptr %17, align 8, !tbaa !17
  %20 = getelementptr inbounds nuw i8, ptr %15, i64 %18
  store i8 %12, ptr %20, align 1, !tbaa !13
  %21 = load ptr, ptr %3, align 8, !tbaa !11
  %22 = getelementptr inbounds nuw %struct.strbuf, ptr %21, i32 0, i32 2
  %23 = load ptr, ptr %22, align 8, !tbaa !14
  %24 = load ptr, ptr %3, align 8, !tbaa !11
  %25 = getelementptr inbounds nuw %struct.strbuf, ptr %24, i32 0, i32 1
  %26 = load i64, ptr %25, align 8, !tbaa !17
  %27 = getelementptr inbounds nuw i8, ptr %23, i64 %26
  store i8 0, ptr %27, align 1, !tbaa !13
  ret void
}

; Function Attrs: inlinehint nounwind uwtable
define internal ptr @_(ptr noundef %0) #2 {
  %2 = alloca ptr, align 8
  %3 = alloca ptr, align 8
  store ptr %0, ptr %3, align 8, !tbaa !8
  %4 = load ptr, ptr %3, align 8, !tbaa !8
  %5 = load i8, ptr %4, align 1, !tbaa !13
  %6 = icmp ne i8 %5, 0
  br i1 %6, label %8, label %7

7:                                                ; preds = %1
  store ptr @.str.10, ptr %2, align 8
  br label %16

8:                                                ; preds = %1
  %9 = load i32, ptr @git_gettext_enabled, align 4, !tbaa !4
  %10 = icmp ne i32 %9, 0
  br i1 %10, label %13, label %11

11:                                               ; preds = %8
  %12 = load ptr, ptr %3, align 8, !tbaa !8
  store ptr %12, ptr %2, align 8
  br label %16

13:                                               ; preds = %8
  %14 = load ptr, ptr %3, align 8, !tbaa !8
  %15 = call ptr @dcgettext(ptr noundef null, ptr noundef %14, i32 noundef 5) #8
  store ptr %15, ptr %2, align 8
  br label %16

16:                                               ; preds = %13, %11, %7
  %17 = load ptr, ptr %2, align 8
  ret ptr %17
}

; Function Attrs: nounwind uwtable
define dso_local void @append_todo_help(i32 noundef %0, ptr noundef %1, ptr noundef %2, ptr noundef %3) #0 {
  %5 = alloca i32, align 4
  %6 = alloca ptr, align 8
  %7 = alloca ptr, align 8
  %8 = alloca ptr, align 8
  %9 = alloca ptr, align 8
  %10 = alloca i32, align 4
  store i32 %0, ptr %5, align 4, !tbaa !4
  store ptr %1, ptr %6, align 8, !tbaa !8
  store ptr %2, ptr %7, align 8, !tbaa !8
  store ptr %3, ptr %8, align 8, !tbaa !11
  call void @llvm.lifetime.start.p0(i64 8, ptr %9) #8
  %11 = call ptr @_(ptr noundef @.str)
  store ptr %11, ptr %9, align 8, !tbaa !8
  call void @llvm.lifetime.start.p0(i64 4, ptr %10) #8
  %12 = load ptr, ptr %6, align 8, !tbaa !8
  %13 = icmp ne ptr %12, null
  br i1 %13, label %14, label %17

14:                                               ; preds = %4
  %15 = load ptr, ptr %7, align 8, !tbaa !8
  %16 = icmp ne ptr %15, null
  br label %17

17:                                               ; preds = %14, %4
  %18 = phi i1 [ false, %4 ], [ %16, %14 ]
  %19 = xor i1 %18, true
  %20 = zext i1 %19 to i32
  store i32 %20, ptr %10, align 4, !tbaa !4
  %21 = load i32, ptr %10, align 4, !tbaa !4
  %22 = icmp ne i32 %21, 0
  br i1 %22, label %33, label %23

23:                                               ; preds = %17
  %24 = load ptr, ptr %8, align 8, !tbaa !11
  call void @strbuf_addch(ptr noundef %24, i32 noundef 10)
  %25 = load ptr, ptr %8, align 8, !tbaa !11
  %26 = load ptr, ptr @comment_line_str, align 8, !tbaa !8
  %27 = load i32, ptr %5, align 4, !tbaa !4
  %28 = sext i32 %27 to i64
  %29 = call ptr @Q_(ptr noundef @.str.1, ptr noundef @.str.2, i64 noundef %28)
  %30 = load ptr, ptr %6, align 8, !tbaa !8
  %31 = load ptr, ptr %7, align 8, !tbaa !8
  %32 = load i32, ptr %5, align 4, !tbaa !4
  call void (ptr, ptr, ptr, ...) @strbuf_commented_addf(ptr noundef %25, ptr noundef %26, ptr noundef %29, ptr noundef %30, ptr noundef %31, i32 noundef %32)
  br label %33

33:                                               ; preds = %23, %17
  %34 = load ptr, ptr %8, align 8, !tbaa !11
  %35 = load ptr, ptr %9, align 8, !tbaa !8
  %36 = load ptr, ptr %9, align 8, !tbaa !8
  %37 = call i64 @strlen(ptr noundef %36) #9
  %38 = load ptr, ptr @comment_line_str, align 8, !tbaa !8
  call void @strbuf_add_commented_lines(ptr noundef %34, ptr noundef %35, i64 noundef %37, ptr noundef %38)
  %39 = call i32 @get_missing_commit_check_level()
  %40 = icmp eq i32 %39, 2
  br i1 %40, label %41, label %43

41:                                               ; preds = %33
  %42 = call ptr @_(ptr noundef @.str.3)
  store ptr %42, ptr %9, align 8, !tbaa !8
  br label %45

43:                                               ; preds = %33
  %44 = call ptr @_(ptr noundef @.str.4)
  store ptr %44, ptr %9, align 8, !tbaa !8
  br label %45

45:                                               ; preds = %43, %41
  %46 = load ptr, ptr %8, align 8, !tbaa !11
  %47 = load ptr, ptr %9, align 8, !tbaa !8
  %48 = load ptr, ptr %9, align 8, !tbaa !8
  %49 = call i64 @strlen(ptr noundef %48) #9
  %50 = load ptr, ptr @comment_line_str, align 8, !tbaa !8
  call void @strbuf_add_commented_lines(ptr noundef %46, ptr noundef %47, i64 noundef %49, ptr noundef %50)
  %51 = load i32, ptr %10, align 4, !tbaa !4
  %52 = icmp ne i32 %51, 0
  br i1 %52, label %53, label %55

53:                                               ; preds = %45
  %54 = call ptr @_(ptr noundef @.str.5)
  store ptr %54, ptr %9, align 8, !tbaa !8
  br label %57

55:                                               ; preds = %45
  %56 = call ptr @_(ptr noundef @.str.6)
  store ptr %56, ptr %9, align 8, !tbaa !8
  br label %57

57:                                               ; preds = %55, %53
  %58 = load ptr, ptr %8, align 8, !tbaa !11
  %59 = load ptr, ptr %9, align 8, !tbaa !8
  %60 = load ptr, ptr %9, align 8, !tbaa !8
  %61 = call i64 @strlen(ptr noundef %60) #9
  %62 = load ptr, ptr @comment_line_str, align 8, !tbaa !8
  call void @strbuf_add_commented_lines(ptr noundef %58, ptr noundef %59, i64 noundef %61, ptr noundef %62)
  call void @llvm.lifetime.end.p0(i64 4, ptr %10) #8
  call void @llvm.lifetime.end.p0(i64 8, ptr %9) #8
  ret void
}