; Function Attrs: nounwind uwtable
define dso_local void @append_todo_help(i32 noundef %0, ptr noundef %1, ptr noundef %2, ptr noundef %3) local_unnamed_addr #0 {
  %5 = load i32, ptr @git_gettext_enabled, align 4, !tbaa !4
  %.not4.i = icmp eq i32 %5, 0
  br i1 %.not4.i, label %_.exit, label %6

6:                                                ; preds = %4
  %7 = tail call ptr @dcgettext(ptr noundef null, ptr noundef nonnull @.str, i32 noundef 5) #10
  br label %_.exit

_.exit:                                           ; preds = %4, %6
  %.0.i = phi ptr [ %7, %6 ], [ @.str, %4 ]
  %8 = icmp eq ptr %1, null
  %9 = icmp eq ptr %2, null
  %.not19 = or i1 %8, %9
  br i1 %.not19, label %30, label %10

10:                                               ; preds = %_.exit
  %11 = load i64, ptr %3, align 8, !tbaa !8
  %.not.i.i = icmp eq i64 %11, 0
  br i1 %.not.i.i, label %strbuf_avail.exit.thread.i, label %strbuf_avail.exit.i

strbuf_avail.exit.i:                              ; preds = %10
  %12 = getelementptr inbounds nuw i8, ptr %3, i64 8
  %13 = load i64, ptr %12, align 8, !tbaa !13
  %.neg.i = add i64 %13, 1
  %.not.i = icmp eq i64 %11, %.neg.i
  br i1 %.not.i, label %strbuf_avail.exit.thread.i, label %strbuf_addch.exit

strbuf_avail.exit.thread.i:                       ; preds = %strbuf_avail.exit.i, %10
  tail call void @strbuf_grow(ptr noundef nonnull %3, i64 noundef 1) #10
  %.phi.trans.insert.i = getelementptr inbounds nuw i8, ptr %3, i64 8
  %.pre.i = load i64, ptr %.phi.trans.insert.i, align 8, !tbaa !13
  %.pre7.i = add i64 %.pre.i, 1
  br label %strbuf_addch.exit

strbuf_addch.exit:                                ; preds = %strbuf_avail.exit.i, %strbuf_avail.exit.thread.i
  %.pre-phi.i = phi i64 [ %.pre7.i, %strbuf_avail.exit.thread.i ], [ %.neg.i, %strbuf_avail.exit.i ]
  %14 = phi i64 [ %.pre.i, %strbuf_avail.exit.thread.i ], [ %13, %strbuf_avail.exit.i ]
  %15 = getelementptr inbounds nuw i8, ptr %3, i64 16
  %16 = load ptr, ptr %15, align 8, !tbaa !14
  %17 = getelementptr inbounds nuw i8, ptr %3, i64 8
  store i64 %.pre-phi.i, ptr %17, align 8, !tbaa !13
  %18 = getelementptr inbounds nuw i8, ptr %16, i64 %14
  store i8 10, ptr %18, align 1, !tbaa !15
  %19 = load ptr, ptr %15, align 8, !tbaa !14
  %20 = load i64, ptr %17, align 8, !tbaa !13
  %21 = getelementptr inbounds nuw i8, ptr %19, i64 %20
  store i8 0, ptr %21, align 1, !tbaa !15
  %22 = load ptr, ptr @comment_line_str, align 8, !tbaa !16
  %23 = load i32, ptr @git_gettext_enabled, align 4, !tbaa !4
  %.not.i20 = icmp eq i32 %23, 0
  br i1 %.not.i20, label %24, label %27

24:                                               ; preds = %strbuf_addch.exit
  %25 = icmp eq i32 %0, 1
  %26 = select i1 %25, ptr @.str.1, ptr @.str.2
  br label %Q_.exit

27:                                               ; preds = %strbuf_addch.exit
  %28 = sext i32 %0 to i64
  %29 = tail call ptr @dcngettext(ptr noundef null, ptr noundef nonnull @.str.1, ptr noundef nonnull @.str.2, i64 noundef range(i64 -2147483648, 2147483648) %28, i32 noundef 5) #10
  br label %Q_.exit

Q_.exit:                                          ; preds = %24, %27
  %.0.i21 = phi ptr [ %29, %27 ], [ %26, %24 ]
  tail call void (ptr, ptr, ptr, ...) @strbuf_commented_addf(ptr noundef nonnull %3, ptr noundef %22, ptr noundef %.0.i21, ptr noundef nonnull %1, ptr noundef nonnull %2, i32 noundef %0) #10
  br label %30

30:                                               ; preds = %Q_.exit, %_.exit
  %31 = tail call i64 @strlen(ptr noundef nonnull dereferenceable(1) %.0.i) #11
  %32 = load ptr, ptr @comment_line_str, align 8, !tbaa !16
  tail call void @strbuf_add_commented_lines(ptr noundef %3, ptr noundef nonnull %.0.i, i64 noundef %31, ptr noundef %32) #10
  %33 = tail call fastcc i32 @get_missing_commit_check_level()
  %34 = icmp eq i32 %33, 2
  %35 = load i32, ptr @git_gettext_enabled, align 4, !tbaa !4
  %.not4.i22 = icmp eq i32 %35, 0
  %.str.3..str.4 = select i1 %34, ptr @.str.3, ptr @.str.4
  br i1 %.not4.i22, label %_.exit24, label %_.exit24.sink.split

_.exit24.sink.split:                              ; preds = %30
  %36 = tail call ptr @dcgettext(ptr noundef null, ptr noundef nonnull %.str.3..str.4, i32 noundef 5) #10
  br label %_.exit24

_.exit24:                                         ; preds = %30, %_.exit24.sink.split
  %.0 = phi ptr [ %36, %_.exit24.sink.split ], [ %.str.3..str.4, %30 ]
  %37 = tail call i64 @strlen(ptr noundef nonnull dereferenceable(1) %.0) #11
  %38 = load ptr, ptr @comment_line_str, align 8, !tbaa !16
  tail call void @strbuf_add_commented_lines(ptr noundef %3, ptr noundef nonnull %.0, i64 noundef %37, ptr noundef %38) #10
  %39 = load i32, ptr @git_gettext_enabled, align 4, !tbaa !4
  %.not4.i28 = icmp eq i32 %39, 0
  %.str.5..str.6 = select i1 %.not19, ptr @.str.5, ptr @.str.6
  br i1 %.not4.i28, label %_.exit30, label %_.exit30.sink.split

_.exit30.sink.split:                              ; preds = %_.exit24
  %40 = tail call ptr @dcgettext(ptr noundef null, ptr noundef nonnull %.str.5..str.6, i32 noundef 5) #10
  br label %_.exit30

_.exit30:                                         ; preds = %_.exit24, %_.exit30.sink.split
  %.1 = phi ptr [ %40, %_.exit30.sink.split ], [ %.str.5..str.6, %_.exit24 ]
  %41 = tail call i64 @strlen(ptr noundef nonnull dereferenceable(1) %.1) #11
  %42 = load ptr, ptr @comment_line_str, align 8, !tbaa !16
  tail call void @strbuf_add_commented_lines(ptr noundef %3, ptr noundef nonnull %.1, i64 noundef %41, ptr noundef %42) #10
  ret void
}